; Function Attrs: mustprogress uwtable
define internal void @_ZN12_GLOBAL__N_114OutMessageSink7printlnEON5vcpkg11MessageLineE(ptr nonnull readnone align 8 captures(none) %0, ptr noundef nonnull align 8 dereferenceable(24) %1) unnamed_addr #0 align 2 {
  %3 = alloca %"struct.vcpkg::StringView", align 8
  %4 = load ptr, ptr %1, align 8, !tbaa !26
  %5 = getelementptr inbounds nuw i8, ptr %1, i64 8
  %6 = load ptr, ptr %5, align 8, !tbaa !26
  %7 = icmp eq ptr %4, %6
  br i1 %7, label %8, label %9

8:                                                ; preds = %2
  tail call void @_ZN5vcpkg3msg22write_unlocalized_textENS_5ColorENS_10StringViewE(i8 noundef signext 0, ptr nonnull @.str.1, i64 1)
  br label %.loopexit

9:                                                ; preds = %2
  %10 = getelementptr inbounds i8, ptr %6, i64 -40
  %11 = load i8, ptr %10, align 8, !tbaa !4
  tail call void @_ZN5vcpkg11MessageLine5printENS_5ColorENS_10StringViewE(ptr noundef nonnull align 8 dereferenceable(24) %1, i8 noundef signext %11, ptr nonnull @.str.1, i64 1)
  %12 = load ptr, ptr %1, align 8, !tbaa !26
  %13 = load ptr, ptr %5, align 8, !tbaa !26
  %.not15 = icmp eq ptr %12, %13
  br i1 %.not15, label %.loopexit, label %.lr.ph

.lr.ph:                                           ; preds = %9
  %14 = getelementptr inbounds nuw i8, ptr %3, i64 8
  br label %15

15:                                               ; preds = %.lr.ph, %15
  %.sroa.09.016 = phi ptr [ %12, %.lr.ph ], [ %20, %15 ]
  %16 = load i8, ptr %.sroa.09.016, align 8, !tbaa !4
  %17 = getelementptr inbounds nuw i8, ptr %.sroa.09.016, i64 8
  call void @_ZN5vcpkg10StringViewC1ERKNSt7__cxx1112basic_stringIcSt11char_traitsIcESaIcEEE(ptr noundef nonnull align 8 dereferenceable(16) %3, ptr noundef nonnull align 8 dereferenceable(32) %17) #21
  %18 = load ptr, ptr %3, align 8
  %19 = load i64, ptr %14, align 8
  call void @_ZN5vcpkg3msg22write_unlocalized_textENS_5ColorENS_10StringViewE(i8 noundef signext %16, ptr %18, i64 %19)
  %20 = getelementptr inbounds nuw i8, ptr %.sroa.09.016, i64 40
  %.not = icmp eq ptr %20, %13
  br i1 %.not, label %.loopexit, label %15

.loopexit:                                        ; preds = %15, %9, %8
  ret void
}